(dp1
S'symchi'
p2
(S'integer'
S'symchi'
tp3
sS'pvelmax'
p4
(S'real(dp)'
S'pvelmax(3)'
tp5
sS'ph_freez_disp_option'
p6
(S'integer'
S'ph_freez_disp_option'
tp7
sS'slk_rankpp'
p8
(S'integer'
S'slk_rankpp'
tp9
sS'bs_interp_rl_nb'
p10
(S'integer'
S'bs_interp_rl_nb'
tp11
sS'slabwsrad'
p12
(S'real(dp)'
S'slabwsrad'
tp13
sS'irdbsreso'
p14
(S'integer'
S'irdbsreso'
tp15
sS'toldff'
p16
(S'real(dp)'
S'toldff'
tp17
sS'dmftqmc_l'
p18
(S'integer'
S'dmftqmc_l'
tp19
sS'd3e_pert3_elfd'
p20
(S'integer'
S'd3e_pert3_elfd'
tp21
sS'dmftqmc_n'
p22
(S'real(dp)'
S'dmftqmc_n'
tp23
sS'wvl_nprccg'
p24
(S'integer'
S'wvl_nprccg'
tp25
sS'rhoqpmix'
p26
(S'real(dp)'
S'rhoqpmix'
tp27
sS'gwgamma'
p28
(S'integer'
S'gwgamma'
tp29
sS'vdw_df_ngpts'
p30
(S'integer'
S'vdw_df_ngpts'
tp31
sS'ddb_ngqpt'
p32
(S'integer'
S'ddb_ngqpt(3)'
tp33
sS'gw_toldfeig'
p34
(S'real(dp)'
S'gw_toldfeig'
tp35
sS'useexexch'
p36
(S'integer'
S'useexexch'
tp37
sS'tolmxf'
p38
(S'real(dp)'
S'tolmxf'
tp39
sS'lotf_version'
p40
(S'integer'
S'lotf_version'
tp41
sS'efmas_n_dirs'
p42
(S'integer'
S'efmas_n_dirs'
tp43
sS'cd_frqim_method'
p44
(S'integer'
S'cd_frqim_method'
tp45
sS'prt1dm'
p46
(S'integer'
S'prt1dm'
tp47
sS'usepotzero'
p48
(S'integer'
S'usepotzero'
tp49
sS'prepanl'
p50
(S'integer'
S'prepanl'
tp51
sS'gwls_kmax_analytic'
p52
(S'integer'
S'gwls_kmax_analytic'
tp53
sS'nspinor'
p54
(S'integer'
S'nspinor'
tp55
sS'plowan_projcalc'
p56
(S'integer, allocatable'
S'plowan_projcalc(:)'
tp57
sS'dmftctqmc_gmove'
p58
(S'integer'
S'dmftctqmc_gmove'
tp59
sS'ndtset'
p60
(S'integer'
S'ndtset'
tp61
sS'usepawu'
p62
(S'integer'
S'usepawu'
tp63
sS'mpw'
p64
(S'integer'
S'mpw'
tp65
sS'pawcross'
p66
(S'integer'
S'pawcross'
tp67
sS'occopt'
p68
(S'integer'
S'occopt'
tp69
sS'dmft_nlambda'
p70
(S'integer'
S'dmft_nlambda'
tp71
sS'mdf_epsinf'
p72
(S'real(dp)'
S'mdf_epsinf'
tp73
sS'postoldff'
p74
(S'real(dp)'
S'postoldff'
tp75
sS'vdw_df_tolerance'
p76
(S'real(dp)'
S'vdw_df_tolerance'
tp77
sS'postoldfe'
p78
(S'real(dp)'
S'postoldfe'
tp79
sS'boxcenter'
p80
(S'real(dp)'
S'boxcenter(3)'
tp81
sS'builtintest'
p82
(S'integer'
S'builtintest'
tp83
sS'tolmxde'
p84
(S'real(dp)'
S'tolmxde'
tp85
sS'bxctmindg'
p86
(S'real(dp)'
S'bxctmindg'
tp87
sS'qptdm'
p88
(S'real(dp), allocatable'
S'qptdm(:,:)'
tp89
sS'spbroad'
p90
(S'real(dp)'
S'spbroad'
tp91
sS'td_mexcit'
p92
(S'integer'
S'td_mexcit'
tp93
sS'ga_fitness'
p94
(S'integer'
S'ga_fitness'
tp95
sS'freqspmin'
p96
(S'real(dp)'
S'freqspmin'
tp97
sS'frzfermi'
p98
(S'integer'
S'frzfermi'
tp99
sS'hyb_mixing'
p100
(S'real(dp)'
S'hyb_mixing'
tp101
sS'symafm'
p102
(S'integer, allocatable'
S'symafm(:)'
tp103
sS'rfphon'
p104
(S'integer'
S'rfphon'
tp105
sS'plowan_bandi'
p106
(S'integer'
S'plowan_bandi'
tp107
sS'prtden'
p108
(S'integer'
S'prtden'
tp109
sS'gwpara'
p110
(S'integer'
S'gwpara'
tp111
sS'rfstrs'
p112
(S'integer'
S'rfstrs'
tp113
sS'recptrott'
p114
(S'integer'
S'recptrott'
tp115
sS'plowan_bandf'
p116
(S'integer'
S'plowan_bandf'
tp117
sS'jdtset'
p118
(S'integer'
S'jdtset'
tp119
sS'bs_haydock_niter'
p120
(S'integer'
S'bs_haydock_niter'
tp121
sS'dmft_dc'
p122
(S'integer'
S'dmft_dc'
tp123
sS'exchn2n3d'
p124
(S'integer'
S'exchn2n3d'
tp125
sS'red_efieldbar'
p126
(S'real(dp)'
S'red_efieldbar(3)'
tp127
sS'efmas_deg_tol'
p128
(S'real(dp)'
S'efmas_deg_tol'
tp129
sS'nstep'
p130
(S'integer'
S'nstep'
tp131
sS'iomode'
p132
(S'integer'
S'iomode'
tp133
sS'prtgsr'
p134
(S'integer'
S'prtgsr=1'
tp135
sS'use_gpu_cuda'
p136
(S'integer'
S'use_gpu_cuda'
tp137
sS'algalch'
p138
(S'integer, allocatable'
S'algalch(:)'
tp139
sS'use_gemm_nonlop'
p140
(S'integer'
S'use_gemm_nonlop'
tp141
sS'signperm'
p142
(S'integer'
S'signperm'
tp143
sS'kptrlatt'
p144
(S'integer'
S'kptrlatt(3,3)'
tp145
sS'bs_algorithm'
p146
(S'integer'
S'bs_algorithm'
tp147
sS'gwmem'
p148
(S'integer'
S'gwmem'
tp149
sS'nloalg'
p150
(S'integer'
S'nloalg(3)'
tp151
sS'npkpt'
p152
(S'integer'
S'npkpt'
tp153
sS'gpu_devices'
p154
(S'integer'
S'gpu_devices(5)'
tp155
sS'usekden'
p156
(S'integer'
S'usekden'
tp157
sS'nppert'
p158
(S'integer'
S'nppert'
tp159
sS'xred_orig'
p160
(S'real(dp), allocatable'
S'xred_orig(:,:,:)'
tp161
sS'gwls_band_index'
p162
(S'integer'
S'gwls_band_index'
tp163
sS'ph_nqpath'
p164
(S'integer'
S'ph_nqpath'
tp165
sS'kptns'
p166
(S'real(dp), allocatable'
S'kptns(:,:)'
tp167
sS'nberry'
p168
(S'integer'
S'nberry'
tp169
sS'chksymbreak'
p170
(S'integer'
S'chksymbreak'
tp171
sS'freqremin'
p172
(S'real(dp)'
S'freqremin'
tp173
sS'mgfftdg'
p174
(S'integer'
S'mgfftdg'
tp175
sS'exchmix'
p176
(S'real(dp)'
S'exchmix'
tp177
sS'd3e_pert3_atpol'
p178
(S'integer'
S'd3e_pert3_atpol(2)'
tp179
sS'tfkinfunc'
p180
(S'integer'
S'tfkinfunc'
tp181
sS'ptcharge'
p182
(S'real(dp), allocatable'
S'ptcharge(:)'
tp183
sS'kptnrm'
p184
(S'real(dp)'
S'kptnrm'
tp185
sS'irdbseig'
p186
(S'integer'
S'irdbseig'
tp187
sS'slabzbeg'
p188
(S'real(dp)'
S'slabzbeg'
tp189
sS'gw_customnfreqsp'
p190
(S'integer'
S'gw_customnfreqsp'
tp191
sS'red_efield'
p192
(S'real(dp)'
S'red_efield(3)'
tp193
sS'gw_sctype'
p194
(S'integer'
S'gw_sctype'
tp195
sS'bs_interp_kmult'
p196
(S'integer'
S'bs_interp_kmult(3)'
tp197
sS'gwls_diel_model'
p198
(S'integer'
S'gwls_diel_model'
tp199
sS'vis'
p200
(S'real(dp)'
S'vis'
tp201
sS'cd_imfrqs'
p202
(S'real(dp), allocatable'
S'cd_imfrqs(:)'
tp203
sS'userre'
p204
(S'real(dp)'
S'userre=zero'
tp205
sS'dmftctqmc_correl'
p206
(S'integer'
S'dmftctqmc_correl'
tp207
sS'prtwf_full'
p208
(S'integer'
S'prtwf_full'
tp209
sS'npwwfn'
p210
(S'integer'
S'npwwfn'
tp211
sS'efmas_ntheta'
p212
(S'integer'
S'efmas_ntheta'
tp213
sS'tim1rev'
p214
(S'integer'
S'tim1rev'
tp215
sS'mffmem'
p216
(S'integer'
S'mffmem'
tp217
sS'charge'
p218
(S'real(dp)'
S'charge'
tp219
sS'dfield'
p220
(S'real(dp)'
S'dfield(3)'
tp221
sS'dmftctqmc_grnns'
p222
(S'integer'
S'dmftctqmc_grnns'
tp223
sS'bs_exchange_term'
p224
(S'integer'
S'bs_exchange_term'
tp225
sS'imgwfstor'
p226
(S'integer'
S'imgwfstor'
tp227
sS'eph_task'
p228
(S'integer'
S'eph_task'
tp229
sS'mk1mem'
p230
(S'integer'
S'mk1mem'
tp231
sS'hyb_range_fock'
p232
(S'real(dp)'
S'hyb_range_fock'
tp233
sS'vdw_df_damin'
p234
(S'real(dp)'
S'vdw_df_damin'
tp235
sS'd3e_pert2_dir'
p236
(S'integer'
S'd3e_pert2_dir(3)'
tp237
sS'prtkpt'
p238
(S'integer'
S'prtkpt'
tp239
sS'freqim_alpha'
p240
(S'real(dp)'
S'freqim_alpha'
tp241
sS'vdw_df_dcut'
p242
(S'real(dp)'
S'vdw_df_dcut'
tp243
sS'npfft'
p244
(S'integer'
S'npfft'
tp245
sS'prtvclmb'
p246
(S'integer'
S'prtvclmb'
tp247
sS'wvl_crmult'
p248
(S'real(dp)'
S'wvl_crmult'
tp249
sS'rf2_pert2_dir'
p250
(S'integer'
S'rf2_pert2_dir(3)'
tp251
sS'ecutsigx'
p252
(S'real(dp)'
S'ecutsigx'
tp253
sS'ga_opt_percent'
p254
(S'real(dp)'
S'ga_opt_percent'
tp255
sS'polcen'
p256
(S'real(dp)'
S'polcen(3)'
tp257
sS'wvl_hgrid'
p258
(S'real(dp)'
S'wvl_hgrid'
tp259
sS'userec'
p260
(S'integer'
S'userec'
tp261
sS'prtefmas'
p262
(S'integer'
S'prtefmas'
tp263
sS'spmeth'
p264
(S'integer'
S'spmeth'
tp265
sS'npvel'
p266
(S'integer'
S'npvel'
tp267
sS'mkmem'
p268
(S'integer'
S'mkmem'
tp269
sS'qprtrb'
p270
(S'integer'
S'qprtrb(3)'
tp271
sS'gwls_npt_gauss_quad'
p272
(S'integer'
S'gwls_npt_gauss_quad'
tp273
sS'cineb_start'
p274
(S'integer'
S'cineb_start'
tp275
sS'getden'
p276
(S'integer'
S'getden'
tp277
sS'auxc_scal'
p278
(S'real(dp)'
S'auxc_scal'
tp279
sS'recefermi'
p280
(S'real(dp)'
S'recefermi'
tp281
sS'natpawu'
p282
(S'integer'
S'natpawu'
tp283
sS'plowan_iatom'
p284
(S'integer, allocatable'
S'plowan_iatom(:)'
tp285
sS'vacwidth'
p286
(S'real(dp)'
S'vacwidth'
tp287
sS'eph_ngqpt_fine'
p288
(S'integer'
S'eph_ngqpt_fine(3)'
tp289
sS'vel_orig'
p290
(S'real(dp), allocatable'
S'vel_orig(:,:,:)'
tp291
sS'usedmatpu'
p292
(S'integer'
S'usedmatpu'
tp293
sS'td_maxene'
p294
(S'real(dp)'
S'td_maxene'
tp295
sS'fockdownsampling'
p296
(S'integer'
S'fockdownsampling(3)'
tp297
sS'gw_invalid_freq'
p298
(S'integer'
S'gw_invalid_freq'
tp299
sS'paral_kgb'
p300
(S'integer'
S'paral_kgb'
tp301
sS'dipdip'
p302
(S'integer'
S'dipdip'
tp303
sS'string_algo'
p304
(S'integer'
S'string_algo'
tp305
sS'plowan_compute'
p306
(S'integer'
S'plowan_compute'
tp307
sS'get1wf'
p308
(S'integer'
S'get1wf'
tp309
sS'irdden'
p310
(S'integer'
S'irdden'
tp311
sS'bs_coupling'
p312
(S'integer'
S'bs_coupling'
tp313
sS'getbseig'
p314
(S'integer'
S'getbseig'
tp315
sS'getxred'
p316
(S'integer'
S'getxred'
tp317
sS'prtnest'
p318
(S'integer'
S'prtnest'
tp319
sS'gwls_kmax_poles'
p320
(S'integer'
S'gwls_kmax_poles'
tp321
sS'w90prtunk'
p322
(S'integer'
S'w90prtunk'
tp323
sS'dmftctqmc_mrka'
p324
(S'integer'
S'dmftctqmc_mrka'
tp325
sS'adpimd'
p326
(S'integer'
S'adpimd'
tp327
sS'typat'
p328
(S'integer, allocatable'
S'typat(:)'
tp329
sS'ratsph'
p330
(S'real(dp), allocatable'
S'ratsph(:)'
tp331
sS'wfk_task'
p332
(S'integer'
S'wfk_task'
tp333
sS'mep_mxstep'
p334
(S'real(dp)'
S'mep_mxstep'
tp335
sS'useylm'
p336
(S'integer'
S'useylm'
tp337
sS'macro_uj'
p338
(S'integer'
S'macro_uj'
tp339
sS'natom'
p340
(S'integer'
S'natom'
tp341
sS'npimage'
p342
(S'integer'
S'npimage'
tp343
sS'getcell'
p344
(S'integer'
S'getcell'
tp345
sS'max_ncpus'
p346
(S'integer'
S'max_ncpus'
tp347
sS'maxnsym'
p348
(S'integer'
S'maxnsym'
tp349
sS'tolsym'
p350
(S'real(dp)'
S'tolsym'
tp351
sS'rectolden'
p352
(S'real(dp)'
S'rectolden'
tp353
sS'kssform'
p354
(S'integer'
S'kssform'
tp355
sS'userrd'
p356
(S'real(dp)'
S'userrd=zero'
tp357
sS'userra'
p358
(S'real(dp)'
S'userra=zero'
tp359
sS'userrc'
p360
(S'real(dp)'
S'userrc=zero'
tp361
sS'vdw_df_tweaks'
p362
(S'integer'
S'vdw_df_tweaks'
tp363
sS'effmass_free'
p364
(S'real(dp)'
S'effmass_free'
tp365
sS'prtphbands'
p366
(S'integer'
S'prtphbands=1'
tp367
sS'berrystep'
p368
(S'integer'
S'berrystep'
tp369
sS'dmft_mxsf'
p370
(S'real(dp)'
S'dmft_mxsf'
tp371
sS'wfoptalg'
p372
(S'integer'
S'wfoptalg'
tp373
sS'xc_tb09_c'
p374
(S'real(dp)'
S'xc_tb09_c'
tp375
sS'vcutgeo'
p376
(S'real(dp)'
S'vcutgeo(3)'
tp377
sS'pawxcdev'
p378
(S'integer'
S'pawxcdev'
tp379
sS'efmas_dirs'
p380
(S'real(dp), allocatable'
S'efmas_dirs(:,:)'
tp381
sS'ngfftdg'
p382
(S'integer'
S'ngfftdg(18)'
tp383
sS'ph_freez_disp_nampl'
p384
(S'integer'
S'ph_freez_disp_nampl'
tp385
sS'tnons'
p386
(S'real(dp), allocatable'
S'tnons(:,:)'
tp387
sS'irdwfk'
p388
(S'integer'
S'irdwfk'
tp389
sS'ird1den'
p390
(S'integer'
S'ird1den'
tp391
sS'ntimimage'
p392
(S'integer'
S'ntimimage'
tp393
sS'pawlcutd'
p394
(S'integer'
S'pawlcutd'
tp395
sS'nband'
p396
(S'integer, allocatable'
S'nband(:)'
tp397
sS'extrapwf'
p398
(S'integer'
S'extrapwf'
tp399
sS'mqgrid'
p400
(S'integer'
S'mqgrid'
tp401
sS'dmftqmc_seed'
p402
(S'integer'
S'dmftqmc_seed'
tp403
sS'enunit'
p404
(S'integer'
S'enunit'
tp405
sS'vdw_nfrag'
p406
(S'integer'
S'vdw_nfrag'
tp407
sS'bmass'
p408
(S'real(dp)'
S'bmass'
tp409
sS'd3e_pert2_phon'
p410
(S'integer'
S'd3e_pert2_phon'
tp411
sS'irdwfq'
p412
(S'integer'
S'irdwfq'
tp413
sS'pawstgylm'
p414
(S'integer'
S'pawstgylm'
tp415
sS'rf2_pert1_dir'
p416
(S'integer'
S'rf2_pert1_dir(3)'
tp417
sS'iprcel'
p418
(S'integer'
S'iprcel'
tp419
sS'iatfix'
p420
(S'integer, allocatable'
S'iatfix(:,:)'
tp421
sS'dmftctqmc_meas'
p422
(S'integer'
S'dmftctqmc_meas'
tp423
sS'restartxf'
p424
(S'integer'
S'restartxf'
tp425
sS'ph_ngqpt'
p426
(S'integer'
S'ph_ngqpt(3)'
tp427
sS'prtwf'
p428
(S'integer'
S'prtwf'
tp429
sS'spinmagntarget'
p430
(S'real(dp)'
S'spinmagntarget'
tp431
sS'chempot'
p432
(S'real(dp), allocatable'
S'chempot(:,:,:)'
tp433
sS'prtpsps'
p434
(S'integer'
S'prtpsps=0'
tp435
sS'dynimage'
p436
(S'integer, allocatable'
S'dynimage(:)'
tp437
sS'spgroup'
p438
(S'integer'
S'spgroup'
tp439
sS'npwsigx'
p440
(S'integer'
S'npwsigx'
tp441
sS'nomegasi'
p442
(S'integer'
S'nomegasi'
tp443
sS'nomegasf'
p444
(S'integer'
S'nomegasf'
tp445
sS'iatsph'
p446
(S'integer, allocatable'
S'iatsph(:)'
tp447
sS'nline'
p448
(S'integer'
S'nline'
tp449
sS'dmftqmc_therm'
p450
(S'integer'
S'dmftqmc_therm'
tp451
sS'kpt'
p452
(S'real(dp), allocatable'
S'kpt(:,:)'
tp453
sS'bdberry'
p454
(S'integer'
S'bdberry(4)'
tp455
sS'rfmeth'
p456
(S'integer'
S'rfmeth'
tp457
sS'useria'
p458
(S'integer'
S'useria=0'
tp459
sS'nfreqsp'
p460
(S'integer'
S'nfreqsp'
tp461
sS'useric'
p462
(S'integer'
S'useric=0'
tp463
sS'userid'
p464
(S'integer'
S'userid=0'
tp465
sS'userie'
p466
(S'integer'
S'userie=0'
tp467
sS'efmas_deg'
p468
(S'integer'
S'efmas_deg'
tp469
sS'cd_customnimfrqs'
p470
(S'integer'
S'cd_customnimfrqs'
tp471
sS'random_atpos'
p472
(S'integer'
S'random_atpos'
tp473
sS'ntypalch'
p474
(S'integer'
S'ntypalch'
tp475
sS'localrdwf'
p476
(S'integer'
S'localrdwf'
tp477
sS'prtdosm'
p478
(S'integer'
S'prtdosm'
tp479
sS'nonlinear_info'
p480
(S'integer'
S'nonlinear_info'
tp481
sS'mdtemp'
p482
(S'real(dp)'
S'mdtemp(2)'
tp483
sS'np_slk'
p484
(S'integer'
S'np_slk'
tp485
sS'cd_halfway_freq'
p486
(S'real(dp)'
S'cd_halfway_freq'
tp487
sS'diemix'
p488
(S'real(dp)'
S'diemix'
tp489
sS'lotf_nneigx'
p490
(S'integer'
S'lotf_nneigx'
tp491
sS'ph_ndivsm'
p492
(S'integer'
S'ph_ndivsm'
tp493
sS'vdw_df_nsmooth'
p494
(S'integer'
S'vdw_df_nsmooth'
tp495
sS'densty'
p496
(S'real(dp), allocatable'
S'densty(:,:)'
tp497
sS'prtvpsp'
p498
(S'integer'
S'prtvpsp'
tp499
sS'prtebands'
p500
(S'integer'
S'prtebands=1'
tp501
sS'maxestep'
p502
(S'real(dp)'
S'maxestep'
tp503
sS'efmas_calc_dirs'
p504
(S'integer'
S'efmas_calc_dirs'
tp505
sS'gwencomp'
p506
(S'real(dp)'
S'gwencomp'
tp507
sS'rectesteg'
p508
(S'integer'
S'rectesteg'
tp509
sS'd3e_pert2_atpol'
p510
(S'integer'
S'd3e_pert2_atpol(2)'
tp511
sS'ntypat'
p512
(S'integer'
S'ntypat'
tp513
sS'icoulomb'
p514
(S'integer'
S'icoulomb'
tp515
sS'plowan_lcalc'
p516
(S'integer, allocatable'
S'plowan_lcalc(:)'
tp517
sS'nphf'
p518
(S'integer'
S'nphf'
tp519
sS'corecs'
p520
(S'real(dp), allocatable'
S'corecs(:)'
tp521
sS'dmft_tollc'
p522
(S'real(dp)'
S'dmft_tollc'
tp523
sS'ecutwfn'
p524
(S'real(dp)'
S'ecutwfn'
tp525
sS'mqgriddg'
p526
(S'integer'
S'mqgriddg'
tp527
sS'asr'
p528
(S'integer'
S'asr'
tp529
sS'eph_frohlichm'
p530
(S'integer'
S'eph_frohlichm'
tp531
sS'dmft_entropy'
p532
(S'integer'
S'dmft_entropy'
tp533
sS'ndynimage'
p534
(S'integer'
S'ndynimage'
tp535
sS'eph_extrael'
p536
(S'real(dp)'
S'eph_extrael'
tp537
sS'amu_orig'
p538
(S'real(dp), allocatable'
S'amu_orig(:,:)'
tp539
sS'ecutsm'
p540
(S'real(dp)'
S'ecutsm'
tp541
sS'eph_transport'
p542
(S'integer'
S'eph_transport'
tp543
sS'freqremax'
p544
(S'real(dp)'
S'freqremax'
tp545
sS'nfreqim'
p546
(S'integer'
S'nfreqim'
tp547
sS'einterp'
p548
(S'real(dp)'
S'einterp(4)=zero'
tp549
sS'irdpawden'
p550
(S'integer'
S'irdpawden'
tp551
sS'dielam'
p552
(S'real(dp)'
S'dielam'
tp553
sS'qptn'
p554
(S'real(dp)'
S'qptn(3)'
tp555
sS'gwls_model_parameter'
p556
(S'real(dp)'
S'gwls_model_parameter'
tp557
sS'pawntheta'
p558
(S'integer'
S'pawntheta'
tp559
sS'bdeigrf'
p560
(S'integer'
S'bdeigrf'
tp561
sS'pawujat'
p562
(S'integer'
S'pawujat'
tp563
sS'upawu'
p564
(S'real(dp), allocatable'
S'upawu(:,:)'
tp565
sS'delayperm'
p566
(S'integer'
S'delayperm'
tp567
sS'tfw_toldfe'
p568
(S'real(dp)'
S'tfw_toldfe'
tp569
sS'nscforder'
p570
(S'integer'
S'nscforder'
tp571
sS'pawovlp'
p572
(S'real(dp)'
S'pawovlp'
tp573
sS'plowan_it'
p574
(S'integer, allocatable'
S'plowan_it(:)'
tp575
sS'atvshift'
p576
(S'real(dp), allocatable'
S'atvshift(:,:,:)'
tp577
sS'prtpmp'
p578
(S'integer'
S'prtpmp'
tp579
sS'cpus'
p580
(S'real(dp)'
S'cpus'
tp581
sS'vdw_df_qcut'
p582
(S'real(dp)'
S'vdw_df_qcut'
tp583
sS'ecuteps'
p584
(S'real(dp)'
S'ecuteps'
tp585
sS'nzchempot'
p586
(S'integer'
S'nzchempot'
tp587
sS'gw_qlwl'
p588
(S'real(dp), allocatable'
S'gw_qlwl(:,:)'
tp589
sS'strfact'
p590
(S'real(dp)'
S'strfact'
tp591
sS'iprcfc'
p592
(S'integer'
S'iprcfc'
tp593
sS'irdbscoup'
p594
(S'integer'
S'irdbscoup'
tp595
sS'usexcnhat_orig'
p596
(S'integer'
S'usexcnhat_orig'
tp597
sS'eph_mustar'
p598
(S'real(dp)'
S'eph_mustar'
tp599
sS'genafm'
p600
(S'real(dp)'
S'genafm(3)'
tp601
sS'supercell_latt'
p602
(S'integer'
S'supercell_latt(3,3)'
tp603
sS'eph_intmeth'
p604
(S'integer'
S'eph_intmeth'
tp605
sS'npspinor'
p606
(S'integer'
S'npspinor'
tp607
sS'prtelf'
p608
(S'integer'
S'prtelf'
tp609
sS'eph_fsmear'
p610
(S'real(dp)'
S'eph_fsmear'
tp611
sS'dmft_solv'
p612
(S'integer'
S'dmft_solv'
tp613
sS'prepgkk'
p614
(S'integer'
S'prepgkk'
tp615
sS'ucrpa'
p616
(S'integer'
S'ucrpa'
tp617
sS'cd_max_freq'
p618
(S'real(dp)'
S'cd_max_freq'
tp619
sS'rprimd_orig'
p620
(S'real(dp), allocatable'
S'rprimd_orig(:,:,:)'
tp621
sS'pawfatbnd'
p622
(S'integer'
S'pawfatbnd'
tp623
sS'nfftdg'
p624
(S'integer'
S'nfftdg'
tp625
sS'paral_rf'
p626
(S'integer'
S'paral_rf'
tp627
sS'vdw_tol_3bt'
p628
(S'real(dp)'
S'vdw_tol_3bt'
tp629
sS'istatimg'
p630
(S'integer'
S'istatimg'
tp631
sS'vdw_typfrag'
p632
(S'integer'
S'vdw_typfrag(100)'
tp633
sS'usefock'
p634
(S'integer'
S'usefock'
tp635
sS'nbdblock'
p636
(S'integer'
S'nbdblock'
tp637
sS'irdwfkfine'
p638
(S'integer'
S'irdwfkfine'
tp639
sS'ddamp'
p640
(S'real(dp)'
S'ddamp'
tp641
sS'irdscr'
p642
(S'integer'
S'irdscr'
tp643
sS'orbmag'
p644
(S'integer'
S'orbmag'
tp645
sS'bs_freq_mesh'
p646
(S'real(dp)'
S'bs_freq_mesh(3)'
tp647
sS'hyb_range_dft'
p648
(S'real(dp)'
S'hyb_range_dft'
tp649
sS'getgam_eig2nkq'
p650
(S'integer'
S'getgam_eig2nkq'
tp651
sS'gw_frqre_inzgrid'
p652
(S'integer'
S'gw_frqre_inzgrid'
tp653
sS'gwls_first_seed'
p654
(S'integer'
S'gwls_first_seed'
tp655
sS'vdw_tol'
p656
(S'real(dp)'
S'vdw_tol'
tp657
sS'use_slk'
p658
(S'integer'
S'use_slk'
tp659
sS'vdw_df_rsoft'
p660
(S'real(dp)'
S'vdw_df_rsoft'
tp661
sS'red_dfield'
p662
(S'real(dp)'
S'red_dfield(3)'
tp663
sS'rcut'
p664
(S'real(dp)'
S'rcut'
tp665
sS'prtsuscep'
p666
(S'integer'
S'prtsuscep'
tp667
sS'pawsushat'
p668
(S'integer'
S'pawsushat'
tp669
sS'diemixmag'
p670
(S'real(dp)'
S'diemixmag'
tp671
sS'd3e_pert3_phon'
p672
(S'integer'
S'd3e_pert3_phon'
tp673
sS'irandom'
p674
(S'integer'
S'irandom'
tp675
sS'rfuser'
p676
(S'integer'
S'rfuser'
tp677
sS'prtphdos'
p678
(S'integer'
S'prtphdos'
tp679
sS'dmatpawu'
p680
(S'real(dp), allocatable'
S'dmatpawu(:,:,:,:,:)'
tp681
sS'vdw_df_gcut'
p682
(S'real(dp)'
S'vdw_df_gcut'
tp683
sS'prtfsurf'
p684
(S'integer'
S'prtfsurf'
tp685
sS'accuracy'
p686
(S'integer'
S'accuracy'
tp687
sS'npband'
p688
(S'integer'
S'npband'
tp689
sS'd3e_pert2_elfd'
p690
(S'integer'
S'd3e_pert2_elfd'
tp691
sS'nelect'
p692
(S'real(dp)'
S'nelect'
tp693
sS'getbsreso'
p694
(S'integer'
S'getbsreso'
tp695
sS'prtvxc'
p696
(S'integer'
S'prtvxc'
tp697
sS'gwls_kmax_numeric'
p698
(S'integer'
S'gwls_kmax_numeric'
tp699
sS'ixc_sigma'
p700
(S'integer'
S'ixc_sigma'
tp701
sS'nfft'
p702
(S'integer'
S'nfft'
tp703
sS'rfasr'
p704
(S'integer'
S'rfasr'
tp705
sS'qptrlatt'
p706
(S'integer'
S'qptrlatt(3,3)'
tp707
sS'vdw_supercell'
p708
(S'integer'
S'vdw_supercell(3)'
tp709
sS'dtion'
p710
(S'real(dp)'
S'dtion'
tp711
sS'neb_spring'
p712
(S'real(dp)'
S'neb_spring(2)'
tp713
sS'plowan_nt'
p714
(S'integer'
S'plowan_nt'
tp715
sS'rfelfd'
p716
(S'integer'
S'rfelfd'
tp717
sS'prtvhxc'
p718
(S'integer'
S'prtvhxc'
tp719
sS'mbpt_sciss'
p720
(S'real(dp)'
S'mbpt_sciss'
tp721
sS'mgfft'
p722
(S'integer'
S'mgfft'
tp723
sS'dmatudiag'
p724
(S'integer'
S'dmatudiag'
tp725
sS'recgratio'
p726
(S'integer'
S'recgratio'
tp727
sS'mdwall'
p728
(S'real(dp)'
S'mdwall'
tp729
sS'vdw_df_qratio'
p730
(S'real(dp)'
S'vdw_df_qratio'
tp731
sS'rfatpol'
p732
(S'integer'
S'rfatpol(2)'
tp733
sS'npwkss'
p734
(S'integer'
S'npwkss'
tp735
sS'friction'
p736
(S'real(dp)'
S'friction'
tp737
sS'ngkpt'
p738
(S'integer'
S'ngkpt(3)'
tp739
sS'gwls_exchange'
p740
(S'integer'
S'gwls_exchange'
tp741
sS'gw_nqlwl'
p742
(S'integer'
S'gw_nqlwl'
tp743
sS'gwcalctyp'
p744
(S'integer'
S'gwcalctyp'
tp745
sS'bs_hayd_term'
p746
(S'integer'
S'bs_hayd_term'
tp747
sS'irdsuscep'
p748
(S'integer'
S'irdsuscep'
tp749
sS'vdw_df_aratio'
p750
(S'real(dp)'
S'vdw_df_aratio'
tp751
sS'bs_interp_method'
p752
(S'integer'
S'bs_interp_method'
tp753
sS'zeemanfield'
p754
(S'real(dp)'
S'zeemanfield(3)'
tp755
sS'focktoldfe'
p756
(S'real(dp)'
S'focktoldfe'
tp757
sS'chkprim'
p758
(S'integer'
S'chkprim'
tp759
sS'omegasimax'
p760
(S'real(dp)'
S'omegasimax'
tp761
sS'dosdeltae'
p762
(S'real(dp)'
S'dosdeltae'
tp763
sS'prtefg'
p764
(S'integer'
S'prtefg'
tp765
sS'prtkbff'
p766
(S'integer'
S'prtkbff=0'
tp767
sS'irdvdw'
p768
(S'integer'
S'irdvdw'
tp769
sS'kptrlen'
p770
(S'real(dp)'
S'kptrlen'
tp771
sS'kptgw'
p772
(S'real(dp), allocatable'
S'kptgw(:,:)'
tp773
sS'zcut'
p774
(S'real(dp)'
S'zcut'
tp775
sS'irdefmas'
p776
(S'integer'
S'irdefmas'
tp777
sS'kptns_hf'
p778
(S'real(dp), allocatable'
S'kptns_hf(:,:)'
tp779
sS'tolrde'
p780
(S'real(dp)'
S'tolrde'
tp781
sS'getvel'
p782
(S'integer'
S'getvel'
tp783
sS'optnlxccc'
p784
(S'integer'
S'optnlxccc'
tp785
sS'bdgw'
p786
(S'integer, allocatable'
S'bdgw(:,:,:)'
tp787
sS'dmft_read_occnd'
p788
(S'integer'
S'dmft_read_occnd'
tp789
sS'getpawden'
p790
(S'integer'
S'getpawden'
tp791
sS'esmear'
p792
(S'real(dp)'
S'esmear'
tp793
sS'ph_nqshift'
p794
(S'integer'
S'ph_nqshift'
tp795
sS'dmftcheck'
p796
(S'integer'
S'dmftcheck'
tp797
sS'irdddk'
p798
(S'integer'
S'irdddk'
tp799
sS'kptbounds'
p800
(S'real(dp),allocatable'
S'kptbounds(:,:)'
tp801
sS'mem_test'
p802
(S'integer'
S'mem_test=1'
tp803
sS'prteig'
p804
(S'integer'
S'prteig'
tp805
sS'irdddb'
p806
(S'integer'
S'irdddb'
tp807
sS'd3e_pert1_atpol'
p808
(S'integer'
S'd3e_pert1_atpol(2)'
tp809
sS'gwcomp'
p810
(S'integer'
S'gwcomp'
tp811
sS'pawujv'
p812
(S'real(dp)'
S'pawujv'
tp813
sS'gethaydock'
p814
(S'integer'
S'gethaydock'
tp815
sS'bs_nstates'
p816
(S'integer'
S'bs_nstates'
tp817
sS'gw_nstep'
p818
(S'integer'
S'gw_nstep'
tp819
sS'getwfkfine'
p820
(S'integer'
S'getwfkfine'
tp821
sS'gwls_nseeds'
p822
(S'integer'
S'gwls_nseeds'
tp823
sS'efield'
p824
(S'real(dp)'
S'efield(3)'
tp825
sS'tl_nprccg'
p826
(S'integer'
S'tl_nprccg'
tp827
sS'bfield'
p828
(S'real(dp)'
S'bfield(3)'
tp829
sS'pawprtwf'
p830
(S'integer'
S'pawprtwf'
tp831
sS'd3e_pert1_dir'
p832
(S'integer'
S'd3e_pert1_dir(3)'
tp833
sS'userrb'
p834
(S'real(dp)'
S'userrb=zero'
tp835
sS'chneut'
p836
(S'integer'
S'chneut'
tp837
sS'diecut'
p838
(S'real(dp)'
S'diecut'
tp839
sS'symdynmat'
p840
(S'integer'
S'symdynmat'
tp841
sS'ird1wf'
p842
(S'integer'
S'ird1wf'
tp843
sS'gwls_print_debug'
p844
(S'integer'
S'gwls_print_debug'
tp845
sS'magconon'
p846
(S'integer'
S'magconon'
tp847
sS'vdw_df_dsoft'
p848
(S'real(dp)'
S'vdw_df_dsoft'
tp849
sS'rfddk'
p850
(S'integer'
S'rfddk'
tp851
sS'dielng'
p852
(S'real(dp)'
S'dielng'
tp853
sS'vdw_df_ndpts'
p854
(S'integer'
S'vdw_df_ndpts'
tp855
sS'chkdilatmx'
p856
(S'integer'
S'chkdilatmx'
tp857
sS'jpawu'
p858
(S'real(dp), allocatable'
S'jpawu(:,:)'
tp859
sS'nqpt'
p860
(S'integer'
S'nqpt'
tp861
sS'pawlmix'
p862
(S'integer'
S'pawlmix'
tp863
sS'prtlden'
p864
(S'integer'
S'prtlden'
tp865
sS'optstress'
p866
(S'integer'
S'optstress'
tp867
sS'wtq'
p868
(S'real(dp)'
S'wtq'
tp869
sS'positron'
p870
(S'integer'
S'positron'
tp871
sS'gwls_stern_kmax'
p872
(S'integer'
S'gwls_stern_kmax'
tp873
sS'prtatlist'
p874
(S'integer, allocatable'
S'prtatlist(:)'
tp875
sS'prtphsurf'
p876
(S'integer'
S'prtphsurf=0'
tp877
sS'ga_rules'
p878
(S'integer'
S'ga_rules(30)'
tp879
sS'wtatcon'
p880
(S'real(dp), allocatable'
S'wtatcon(:,:,:)'
tp881
sS'getefmas'
p882
(S'integer'
S'getefmas'
tp883
sS'usepaw'
p884
(S'integer'
S'usepaw'
tp885
sS'smdelta'
p886
(S'integer'
S'smdelta'
tp887
sS'pawujrad'
p888
(S'real(dp)'
S'pawujrad'
tp889
sS'bandpp'
p890
(S'integer'
S'bandpp'
tp891
sS'dmftctqmc_basis'
p892
(S'integer'
S'dmftctqmc_basis'
tp893
sS'ldaminushalf'
p894
(S'integer, allocatable'
S'ldaminushalf(:)'
tp895
sS'getwfk'
p896
(S'integer'
S'getwfk'
tp897
sS'diismemory'
p898
(S'integer'
S'diismemory'
tp899
sS'getwfq'
p900
(S'integer'
S'getwfq'
tp901
sS'fband'
p902
(S'real(dp)'
S'fband'
tp903
sS'magcon_lambda'
p904
(S'real(dp)'
S'magcon_lambda'
tp905
sS'natsph_extra'
p906
(S'integer'
S'natsph_extra'
tp907
sS'nbandkss'
p908
(S'integer'
S'nbandkss'
tp909
sS'freqspmax'
p910
(S'real(dp)'
S'freqspmax'
tp911
sS'gw_sigxcore'
p912
(S'integer'
S'gw_sigxcore'
tp913
sS'pitransform'
p914
(S'integer'
S'pitransform'
tp915
sS'userib'
p916
(S'integer'
S'userib=0'
tp917
sS'diegap'
p918
(S'real(dp)'
S'diegap'
tp919
sS'ziontypat'
p920
(S'real(dp), allocatable'
S'ziontypat(:)'
tp921
sS'pawmixdg'
p922
(S'integer'
S'pawmixdg'
tp923
sS'strprecon'
p924
(S'real(dp)'
S'strprecon'
tp925
sS'prtdipole'
p926
(S'integer'
S'prtdipole'
tp927
sS'pol'
p928
(S'real(dp)'
S'pol(3)'
tp929
sS'dmftctqmc_mov'
p930
(S'integer'
S'dmftctqmc_mov'
tp931
sS'istatshft'
p932
(S'integer'
S'istatshft'
tp933
sS'npweps'
p934
(S'integer'
S'npweps'
tp935
sS'spnorbscl'
p936
(S'real(dp)'
S'spnorbscl'
tp937
sS'ga_algor'
p938
(S'integer'
S'ga_algor'
tp939
sS'wtk'
p940
(S'real(dp), allocatable'
S'wtk(:)'
tp941
sS'ph_smear'
p942
(S'real(dp)'
S'ph_smear'
tp943
sS'gwls_n_proj_freq'
p944
(S'integer'
S'gwls_n_proj_freq'
tp945
sS'gwls_recycle'
p946
(S'integer'
S'gwls_recycle'
tp947
sS'awtr'
p948
(S'integer'
S'awtr'
tp949
sS'vdw_df_acutmin'
p950
(S'real(dp)'
S'vdw_df_acutmin'
tp951
sS'nkptgw'
p952
(S'integer'
S'nkptgw'
tp953
sS'occ_orig'
p954
(S'real(dp), allocatable'
S'occ_orig(:,:)'
tp955
sS'npulayit'
p956
(S'integer'
S'npulayit'
tp957
sS'dmft_nwli'
p958
(S'integer'
S'dmft_nwli'
tp959
sS'ratsph_extra'
p960
(S'real(dp)'
S'ratsph_extra'
tp961
sS'inclvkb'
p962
(S'integer'
S'inclvkb'
tp963
sS'nnos'
p964
(S'integer'
S'nnos'
tp965
sS'efmas_dim'
p966
(S'integer'
S'efmas_dim'
tp967
sS'gwrpacorr'
p968
(S'integer'
S'gwrpacorr'
tp969
sS'dilatmx'
p970
(S'real(dp)'
S'dilatmx'
tp971
sS'dmatpuopt'
p972
(S'integer'
S'dmatpuopt'
tp973
sS'pawecutdg'
p974
(S'real(dp)'
S'pawecutdg'
tp975
sS'gwls_kmax_complement'
p976
(S'integer'
S'gwls_kmax_complement'
tp977
sS'tolimg'
p978
(S'real(dp)'
S'tolimg'
tp979
sS'wvl_bigdft_comp'
p980
(S'integer'
S'wvl_bigdft_comp'
tp981
sS'natvshift'
p982
(S'integer'
S'natvshift'
tp983
sS'gw_frqim_inzgrid'
p984
(S'integer'
S'gw_frqim_inzgrid'
tp985
sS'acell_orig'
p986
(S'real(dp), allocatable'
S'acell_orig(:,:)'
tp987
sS'dmftctqmc_order'
p988
(S'integer'
S'dmftctqmc_order'
tp989
sS'diemac'
p990
(S'real(dp)'
S'diemac'
tp991
sS'mep_solver'
p992
(S'integer'
S'mep_solver'
tp993
sS'nc_xccc_gspace'
p994
(S'integer'
S'nc_xccc_gspace=0'
tp995
sS'bravais'
p996
(S'integer'
S'bravais(11)'
tp997
sS'efmas'
p998
(S'integer'
S'efmas'
tp999
sS'vdw_df_phisoft'
p1000
(S'real(dp)'
S'vdw_df_phisoft'
tp1001
sS'prtgden'
p1002
(S'integer'
S'prtgden'
tp1003
sS'prtstm'
p1004
(S'integer'
S'prtstm'
tp1005
sS'prtfc'
p1006
(S'integer'
S'prtfc'
tp1007
sS'berryopt'
p1008
(S'integer'
S'berryopt'
tp1009
sS'prtvdw'
p1010
(S'integer'
S'prtvdw'
tp1011
sS'ixcpositron'
p1012
(S'integer'
S'ixcpositron'
tp1013
sS'getqps'
p1014
(S'integer'
S'getqps'
tp1015
sS'ndivsm'
p1016
(S'integer'
S'ndivsm=0'
tp1017
sS'timopt'
p1018
(S'integer'
S'timopt'
tp1019
sS'gwls_list_proj_freq'
p1020
(S'real(dp), allocatable'
S'gwls_list_proj_freq(:)'
tp1021
sS'rfdir'
p1022
(S'integer'
S'rfdir(3)'
tp1023
sS'shiftk'
p1024
(S'real(dp), allocatable'
S'shiftk(:,:)'
tp1025
sS'vdw_df_threshold'
p1026
(S'real(dp)'
S'vdw_df_threshold'
tp1027
sS'kberry'
p1028
(S'integer, allocatable'
S'kberry(:,:)'
tp1029
sS'lotf_nitex'
p1030
(S'integer'
S'lotf_nitex'
tp1031
sS'bs_loband'
p1032
(S'integer,allocatable'
S'bs_loband(:)'
tp1033
sS'usewvl'
p1034
(S'integer'
S'usewvl'
tp1035
sS'getocc'
p1036
(S'integer'
S'getocc'
tp1037
sS'prtposcar'
p1038
(S'integer'
S'prtposcar'
tp1039
sS'ph_intmeth'
p1040
(S'integer'
S'ph_intmeth'
tp1041
sS'gwls_correlation'
p1042
(S'integer'
S'gwls_correlation'
tp1043
sS'eshift'
p1044
(S'real(dp)'
S'eshift'
tp1045
sS'vdw_df_nqpts'
p1046
(S'integer'
S'vdw_df_nqpts'
tp1047
sS'iboxcut'
p1048
(S'integer'
S'iboxcut'
tp1049
sS'paral_atom'
p1050
(S'integer'
S'paral_atom'
tp1051
sS'iscf'
p1052
(S'integer'
S'iscf'
tp1053
sS'dmft_t2g'
p1054
(S'integer'
S'dmft_t2g'
tp1055
sS'usedmft'
p1056
(S'integer'
S'usedmft'
tp1057
sS'ucrpa_window'
p1058
(S'real(dp)'
S'ucrpa_window(2)'
tp1059
sS'nshiftk'
p1060
(S'integer'
S'nshiftk'
tp1061
sS'nsym'
p1062
(S'integer'
S'nsym'
tp1063
sS'vdw_df_rcut'
p1064
(S'real(dp)'
S'vdw_df_rcut'
tp1065
sS'gpu_linalg_limit'
p1066
(S'integer'
S'gpu_linalg_limit'
tp1067
sS'prtcif'
p1068
(S'integer'
S'prtcif'
tp1069
sS'omegasrdmax'
p1070
(S'real(dp)'
S'omegasrdmax'
tp1071
sS'vdw_df_zab'
p1072
(S'real(dp)'
S'vdw_df_zab'
tp1073
sS'usepead'
p1074
(S'integer'
S'usepead'
tp1075
sS'noseinert'
p1076
(S'real(dp)'
S'noseinert'
tp1077
sS'wvl_ngauss'
p1078
(S'integer'
S'wvl_ngauss(2)'
tp1079
sS'intxc'
p1080
(S'integer'
S'intxc'
tp1081
sS'mixesimgf'
p1082
(S'real(dp), allocatable'
S'mixesimgf(:)'
tp1083
sS'ixcrot'
p1084
(S'integer'
S'ixcrot'
tp1085
sS'ph_'
p1086
(S'integer'
S'ph_'
tp1087
sS'spgaxor'
p1088
(S'integer'
S'spgaxor'
tp1089
sS'dfpt_sciss'
p1090
(S'real(dp)'
S'dfpt_sciss'
tp1091
sS'get1den'
p1092
(S'integer'
S'get1den'
tp1093
sS'pawspnorb'
p1094
(S'integer'
S'pawspnorb'
tp1095
sS'dmftbandi'
p1096
(S'integer'
S'dmftbandi'
tp1097
sS'd3e_pert1_elfd'
p1098
(S'integer'
S'd3e_pert1_elfd'
tp1099
sS'rfmagn'
p1100
(S'integer'
S'rfmagn'
tp1101
sS'irdqps'
p1102
(S'integer'
S'irdqps'
tp1103
sS'kptrlatt_orig'
p1104
(S'integer'
S'kptrlatt_orig(3,3)=0'
tp1105
sS'dmftbandf'
p1106
(S'integer'
S'dmftbandf'
tp1107
sS'autoparal'
p1108
(S'integer'
S'autoparal'
tp1109
sS'eph_fsewin'
p1110
(S'real(dp)'
S'eph_fsewin'
tp1111
sS'jellslab'
p1112
(S'integer'
S'jellslab'
tp1113
sS'ppmodel'
p1114
(S'integer'
S'ppmodel'
tp1115
sS'pawoptmix'
p1116
(S'integer'
S'pawoptmix'
tp1117
sS'optcell'
p1118
(S'integer'
S'optcell'
tp1119
sS'pawprtdos'
p1120
(S'integer'
S'pawprtdos'
tp1121
sS'prtgeo'
p1122
(S'integer'
S'prtgeo'
tp1123
sS'nnsclohf'
p1124
(S'integer'
S'nnsclohf'
tp1125
sS'cd_subset_freq'
p1126
(S'integer'
S'cd_subset_freq(2)'
tp1127
sS'berrysav'
p1128
(S'integer'
S'berrysav'
tp1129
sS'tolwfr'
p1130
(S'real(dp)'
S'tolwfr'
tp1131
sS'ga_n_rules'
p1132
(S'integer'
S'ga_n_rules'
tp1133
sS'prtvolimg'
p1134
(S'integer'
S'prtvolimg'
tp1135
sS'lotf_classic'
p1136
(S'integer'
S'lotf_classic'
tp1137
sS'ionmov'
p1138
(S'integer'
S'ionmov'
tp1139
sS'strtarget'
p1140
(S'real(dp)'
S'strtarget(6)'
tp1141
sS'vdw_df_dratio'
p1142
(S'real(dp)'
S'vdw_df_dratio'
tp1143
sS'kptopt'
p1144
(S'integer'
S'kptopt'
tp1145
sS'w90iniprj'
p1146
(S'integer'
S'w90iniprj'
tp1147
sS'nsppol'
p1148
(S'integer'
S'nsppol'
tp1149
sS'hmctt'
p1150
(S'integer'
S'hmctt'
tp1151
sS'bs_coulomb_term'
p1152
(S'integer'
S'bs_coulomb_term'
tp1153
sS'nucdipmom'
p1154
(S'real(dp), allocatable'
S'nucdipmom(:,:)'
tp1155
sS'ddb_shiftq'
p1156
(S'real(dp)'
S'ddb_shiftq(3)'
tp1157
sS'ptgroupma'
p1158
(S'integer'
S'ptgroupma'
tp1159
sS'pawnhatxc'
p1160
(S'integer'
S'pawnhatxc'
tp1161
sS'hmcsst'
p1162
(S'integer'
S'hmcsst'
tp1163
sS'tphysel'
p1164
(S'real(dp)'
S'tphysel'
tp1165
sS'symrel'
p1166
(S'integer, allocatable'
S'symrel(:,:,:)'
tp1167
sS'pawcpxocc'
p1168
(S'integer'
S'pawcpxocc'
tp1169
sS'wvl_frmult'
p1170
(S'real(dp)'
S'wvl_frmult'
tp1171
sS'bs_interp_prep'
p1172
(S'integer'
S'bs_interp_prep'
tp1173
sS'pawusecp'
p1174
(S'integer'
S'pawusecp'
tp1175
sS'ph_freez_disp_ampl'
p1176
(S'real(dp),allocatable'
S'ph_freez_disp_ampl(:,:)'
tp1177
sS'prtxml'
p1178
(S'integer'
S'prtxml'
tp1179
sS'rf2_dkdk'
p1180
(S'integer'
S'rf2_dkdk'
tp1181
sS'so_psp'
p1182
(S'integer, allocatable'
S'so_psp(:)'
tp1183
sS'prtpot'
p1184
(S'integer'
S'prtpot'
tp1185
sS'plowan_realspace'
p1186
(S'integer'
S'plowan_realspace'
tp1187
sS'rf2_dkde'
p1188
(S'integer'
S'rf2_dkde'
tp1189
sS'istwfk'
p1190
(S'integer, allocatable'
S'istwfk(:)'
tp1191
sS'optforces'
p1192
(S'integer'
S'optforces'
tp1193
sS'tolrff'
p1194
(S'real(dp)'
S'tolrff'
tp1195
sS'brvltt'
p1196
(S'integer'
S'brvltt'
tp1197
sS'd3e_pert1_phon'
p1198
(S'integer'
S'd3e_pert1_phon'
tp1199
sS'boxcutmin'
p1200
(S'real(dp)'
S'boxcutmin'
tp1201
sS'ntime'
p1202
(S'integer'
S'ntime'
tp1203
sS'prtvha'
p1204
(S'integer'
S'prtvha'
tp1205
sS'npsp'
p1206
(S'integer'
S'npsp'
tp1207
sS'ppmfrq'
p1208
(S'real(dp)'
S'ppmfrq'
tp1209
sS'symsigma'
p1210
(S'integer'
S'symsigma'
tp1211
sS'goprecprm'
p1212
(S'real(dp)'
S'goprecprm(3)'
tp1213
sS'prtvol'
p1214
(S'integer'
S'prtvol'
tp1215
sS'nqptdm'
p1216
(S'integer'
S'nqptdm'
tp1217
sS'prtbltztrp'
p1218
(S'integer'
S'prtbltztrp'
tp1219
sS'densfor_pred'
p1220
(S'integer'
S'densfor_pred'
tp1221
sS'isecur'
p1222
(S'integer'
S'isecur'
tp1223
sS'getddb'
p1224
(S'integer'
S'getddb'
tp1225
sS'natsph'
p1226
(S'integer'
S'natsph'
tp1227
sS'gw_freqsp'
p1228
(S'real(dp), allocatable'
S'gw_freqsp(:)'
tp1229
sS'slabzend'
p1230
(S'real(dp)'
S'slabzend'
tp1231
sS'getddk'
p1232
(S'integer'
S'getddk'
tp1233
sS'pimd_constraint'
p1234
(S'integer'
S'pimd_constraint'
tp1235
sS'nwfshist'
p1236
(S'integer'
S'nwfshist'
tp1237
sS'nctime'
p1238
(S'integer'
S'nctime'
tp1239
sS'ecut'
p1240
(S'real(dp)'
S'ecut'
tp1241
sS'pawprt_k'
p1242
(S'integer'
S'pawprt_k'
tp1243
sS'pawoptosc'
p1244
(S'integer'
S'pawoptosc'
tp1245
sS'nkpt'
p1246
(S'integer'
S'nkpt'
tp1247
sS'prtfull1wf'
p1248
(S'integer'
S'prtfull1wf'
tp1249
sS'pawprt_b'
p1250
(S'integer'
S'pawprt_b'
tp1251
sS'nconeq'
p1252
(S'integer'
S'nconeq'
tp1253
sS'rprim_orig'
p1254
(S'real(dp), allocatable'
S'rprim_orig(:,:,:)'
tp1255
sS'efmas_bands'
p1256
(S'integer, allocatable'
S'efmas_bands(:,:)'
tp1257
sS'vdw_xc'
p1258
(S'integer'
S'vdw_xc'
tp1259
sS'ieig2rf'
p1260
(S'integer'
S'ieig2rf'
tp1261
sS'use_nonscf_gkk'
p1262
(S'integer'
S'use_nonscf_gkk'
tp1263
sS'bs_interp_mode'
p1264
(S'integer'
S'bs_interp_mode'
tp1265
sS'bs_eh_cutoff'
p1266
(S'real(dp)'
S'bs_eh_cutoff(2)'
tp1267
sS'getsuscep'
p1268
(S'integer'
S'getsuscep'
tp1269
sS'icutcoul'
p1270
(S'integer'
S'icutcoul'
tp1271
sS'prtspcur'
p1272
(S'integer'
S'prtspcur'
tp1273
sS'dmft_rslf'
p1274
(S'integer'
S'dmft_rslf'
tp1275
sS'prtdos'
p1276
(S'integer'
S'prtdos'
tp1277
sS'spgorig'
p1278
(S'integer'
S'spgorig'
tp1279
sS'recrcut'
p1280
(S'real(dp)'
S'recrcut'
tp1281
sS'nspden'
p1282
(S'integer'
S'nspden'
tp1283
sS'spinat'
p1284
(S'real(dp), allocatable'
S'spinat(:,:)'
tp1285
sS'xredsph_extra'
p1286
(S'real(dp), allocatable'
S'xredsph_extra(:,:)'
tp1287
sS'symmorphi'
p1288
(S'integer'
S'symmorphi'
tp1289
sS'nimage'
p1290
(S'integer'
S'nimage'
tp1291
sS'fermie_nest'
p1292
(S'real(dp)'
S'fermie_nest'
tp1293
sS'bs_haydock_tol'
p1294
(S'real(dp)'
S'bs_haydock_tol(2)'
tp1295
sS'auxc_ixc'
p1296
(S'integer'
S'auxc_ixc'
tp1297
sS'prtnabla'
p1298
(S'integer'
S'prtnabla'
tp1299
sS'znucl'
p1300
(S'real(dp), allocatable'
S'znucl(:)'
tp1301
sS'pawnzlm'
p1302
(S'integer'
S'pawnzlm'
tp1303
sS'nbdbuf'
p1304
(S'integer'
S'nbdbuf'
tp1305
sS'dmft_nwlo'
p1306
(S'integer'
S'dmft_nwlo'
tp1307
sS'ixc'
p1308
(S'integer'
S'ixc'
tp1309
sS'prtwant'
p1310
(S'integer'
S'prtwant'
tp1311
sS'mband'
p1312
(S'integer'
S'mband'
tp1313
sS'getscr'
p1314
(S'integer'
S'getscr'
tp1315
sS'prtkden'
p1316
(S'integer'
S'prtkden'
tp1317
sS'optdriver'
p1318
(S'integer'
S'optdriver'
tp1319
sS'vdw_df_damax'
p1320
(S'real(dp)'
S'vdw_df_damax'
tp1321
sS'nshiftk_orig'
p1322
(S'integer'
S'nshiftk_orig'
tp1323
sS'gw_qprange'
p1324
(S'integer'
S'gw_qprange'
tp1325
sS'qptopt'
p1326
(S'integer'
S'qptopt'
tp1327
sS'eph_fermie'
p1328
(S'real(dp)'
S'eph_fermie'
tp1329
sS'prtbbb'
p1330
(S'integer'
S'prtbbb'
tp1331
sS'ph_qshift'
p1332
(S'real(dp),allocatable'
S'ph_qshift(:,:)'
tp1333
sS'lexexch'
p1334
(S'integer, allocatable'
S'lexexch(:)'
tp1335
sS'nkpthf'
p1336
(S'integer'
S'nkpthf'
tp1337
sS'fftgw'
p1338
(S'integer'
S'fftgw'
tp1339
sS'ph_qpath'
p1340
(S'real(dp),allocatable'
S'ph_qpath(:,:)'
tp1341
sS'pw_unbal_thresh'
p1342
(S'real(dp)'
S'pw_unbal_thresh'
tp1343
sS'vdw_df_nrpts'
p1344
(S'integer'
S'vdw_df_nrpts'
tp1345
sS'd3e_pert3_dir'
p1346
(S'integer'
S'd3e_pert3_dir(3)'
tp1347
sS'goprecon'
p1348
(S'integer'
S'goprecon'
tp1349
sS'dmftctqmc_check'
p1350
(S'integer'
S'dmftctqmc_check'
tp1351
sS'mixalch_orig'
p1352
(S'real(dp), allocatable'
S'mixalch_orig(:,:,:)'
tp1353
sS'prtgkk'
p1354
(S'integer'
S'prtgkk'
tp1355
sS'quadmom'
p1356
(S'real(dp), allocatable'
S'quadmom(:)'
tp1357
sS'shiftk_orig'
p1358
(S'real(dp)'
S'shiftk_orig(3,210)'
tp1359
sS'pawprtvol'
p1360
(S'integer'
S'pawprtvol'
tp1361
sS'tolvrs'
p1362
(S'real(dp)'
S'tolvrs'
tp1363
sS'pawnphi'
p1364
(S'integer'
S'pawnphi'
tp1365
sS'f6of2_sla'
p1366
(S'real(dp), allocatable'
S'f6of2_sla(:)'
tp1367
sS'wfmix'
p1368
(S'real(dp)'
S'wfmix'
tp1369
sS'neb_algo'
p1370
(S'integer'
S'neb_algo'
tp1371
sS'posdoppler'
p1372
(S'integer'
S'posdoppler'
tp1373
sS'ph_freez_disp_addstrain'
p1374
(S'integer'
S'ph_freez_disp_addStrain'
tp1375
sS'bs_interp_m3_width'
p1376
(S'real(dp)'
S'bs_interp_m3_width'
tp1377
sS'recnrec'
p1378
(S'integer'
S'recnrec'
tp1379
sS'tsmear'
p1380
(S'real(dp)'
S'tsmear'
tp1381
sS'tl_radius'
p1382
(S'real(dp)'
S'tl_radius'
tp1383
sS'cd_full_grid'
p1384
(S'integer'
S'cd_full_grid'
tp1385
sS'bs_calctype'
p1386
(S'integer'
S'bs_calctype'
tp1387
sS'posnstep'
p1388
(S'integer'
S'posnstep'
tp1389
sS'irdhaydock'
p1390
(S'integer'
S'irdhaydock'
tp1391
sS'fxcartfactor'
p1392
(S'real(dp)'
S'fxcartfactor'
tp1393
sS'recnpath'
p1394
(S'integer'
S'recnpath'
tp1395
sS'elph2_imagden'
p1396
(S'real(dp)'
S'elph2_imagden'
tp1397
sS'nkpath'
p1398
(S'integer'
S'nkpath=0'
tp1399
sS'gw_frqre_tangrid'
p1400
(S'integer'
S'gw_frqre_tangrid'
tp1401
sS'plowan_nbl'
p1402
(S'integer, allocatable'
S'plowan_nbl(:)'
tp1403
sS'nomegasrd'
p1404
(S'integer'
S'nomegasrd'
tp1405
sS'adpimd_gamma'
p1406
(S'real(dp)'
S'adpimd_gamma'
tp1407
sS'istatr'
p1408
(S'integer'
S'istatr'
tp1409
sS'natrd'
p1410
(S'integer'
S'natrd'
tp1411
sS'getdelfd'
p1412
(S'integer'
S'getdelfd'
tp1413
sS'nnsclo'
p1414
(S'integer'
S'nnsclo'
tp1415
sS'lpawu'
p1416
(S'integer, allocatable'
S'lpawu(:)'
tp1417
sS'xclevel'
p1418
(S'integer'
S'xclevel'
tp1419
sS'fockoptmix'
p1420
(S'integer'
S'fockoptmix'
tp1421
sS'ntyppure'
p1422
(S'integer'
S'ntyppure'
tp1423
sS'nfreqre'
p1424
(S'integer'
S'nfreqre'
tp1425
sS'nbandhf'
p1426
(S'integer'
S'nbandhf'
tp1427
sS'ucrpa_bands'
p1428
(S'integer'
S'ucrpa_bands(2)'
tp1429
sS'plowan_natom'
p1430
(S'integer'
S'plowan_natom'
tp1431
sS'jfielddir'
p1432
(S'integer'
S'jfielddir(3)'
tp1433
sS'imgmov'
p1434
(S'integer'
S'imgmov'
tp1435
sS'ph_wstep'
p1436
(S'real(dp)'
S'ph_wstep'
tp1437
sS'prtdensph'
p1438
(S'integer'
S'prtdensph'
tp1439
sS'posocc'
p1440
(S'real(dp)'
S'posocc'
tp1441
sS'getbscoup'
p1442
(S'integer'
S'getbscoup'
tp1443
sS'pimass'
p1444
(S'real(dp), allocatable'
S'pimass(:)'
tp1445
sS'dmft_iter'
p1446
(S'integer'
S'dmft_iter'
tp1447
sS'getxcart'
p1448
(S'integer'
S'getxcart'
tp1449
sS'f4of2_sla'
p1450
(S'real(dp), allocatable'
S'f4of2_sla(:)'
tp1451
sS'vel_cell_orig'
p1452
(S'real(dp), allocatable'
S'vel_cell_orig(:,:,:)'
tp1453
sS'hyb_mixing_sr'
p1454
(S'real(dp)'
S'hyb_mixing_sr'
tp1455
sS'npspalch'
p1456
(S'integer'
S'npspalch'
tp1457
sS'tmesh'
p1458
(S'real(dp)'
S'tmesh(3)'
tp1459
sS'chkexit'
p1460
(S'integer'
S'chkexit'
tp1461
sS'qmass'
p1462
(S'real(dp), allocatable'
S'qmass(:)'
tp1463
sS'vacnum'
p1464
(S'integer'
S'vacnum'
tp1465
sS'dmft_tolfreq'
p1466
(S'real(dp)'
S'dmft_tolfreq'
tp1467
sS'toldfe'
p1468
(S'real(dp)'
S'toldfe'
tp1469
sS'ortalg'
p1470
(S'integer'
S'ortalg'
tp1471
sS'vprtrb'
p1472
(S'real(dp)'
S'vprtrb(2)'
tp1473
sS'mkqmem'
p1474
(S'integer'
S'mkqmem'
tp1475
sS'getdkde'
p1476
(S'integer'
S'getdkde'
tp1477
sS'stmbias'
p1478
(S'real(dp)'
S'stmbias'
tp1479
sS'xc_denpos'
p1480
(S'real(dp)'
S'xc_denpos'
tp1481
sS'getdkdk'
p1482
(S'integer'
S'getdkdk'
tp1483
sS'dmftctqmc_triqs_nleg'
p1484
(S'integer'
S'dmftctqmc_triqs_nleg'
tp1485
sS'ngfft'
p1486
(S'integer'
S'ngfft(18)'
tp1487
s.